target datalayout = "e-m:e-p270:32:32-p271:32:32-p272:64:64-i64:64-i128:128-f80:128-n8:16:32:64-S128"
target triple = "x86_64-pc-linux-gnu"

%struct.wtap_dumper = type { ptr, i32, i32, i32, i32, i8, i64, ptr, ptr, ptr, ptr, ptr, ptr, ptr, ptr, ptr, ptr, ptr, ptr, ptr, i32, i32, i32 }
%struct.visual_write_info = type { i32, i32, i32, ptr, i32 }

; Function Attrs: null_pointer_is_valid sspstrong uwtable
define internal zeroext i1 @visual_dump_open(ptr noundef %0, ptr noundef %1, ptr noundef %2) #0 {
  %4 = alloca i1, align 1
  %5 = alloca ptr, align 8
  %6 = alloca ptr, align 8
  %7 = alloca ptr, align 8
  %8 = alloca ptr, align 8
  %9 = alloca i64, align 8
  %10 = alloca i64, align 8
  %11 = alloca ptr, align 8
  %12 = alloca ptr, align 8
  %13 = alloca i32, align 4
  store ptr %0, ptr %5, align 8
  store ptr %1, ptr %6, align 8
  store ptr %2, ptr %7, align 8
  call void @llvm.lifetime.start.p0(i64 8, ptr %8) #10
  %14 = load ptr, ptr %5, align 8
  %15 = getelementptr inbounds nuw %struct.wtap_dumper, ptr %14, i32 0, i32 10
  store ptr @visual_dump, ptr %15, align 8
  %16 = load ptr, ptr %5, align 8
  %17 = getelementptr inbounds nuw %struct.wtap_dumper, ptr %16, i32 0, i32 11
  store ptr @visual_dump_finish, ptr %17, align 8
  call void @llvm.lifetime.start.p0(i64 8, ptr %9) #10
  store i64 1, ptr %9, align 8
  call void @llvm.lifetime.start.p0(i64 8, ptr %10) #10
  store i64 32, ptr %10, align 8
  call void @llvm.lifetime.start.p0(i64 8, ptr %11) #10
  %18 = load i64, ptr %10, align 8
  %19 = icmp eq i64 %18, 1
  br i1 %19, label %20, label %23

20:                                               ; preds = %3
  %21 = load i64, ptr %9, align 8
  %22 = call noalias ptr @g_malloc(i64 noundef %21) #12
  store ptr %22, ptr %11, align 8
  br label %44

23:                                               ; preds = %3
  %24 = load i64, ptr %9, align 8
  %25 = call i1 @llvm.is.constant.i64(i64 %24)
  br i1 %25, label %26, label %39

26:                                               ; preds = %23
  %27 = load i64, ptr %10, align 8
  %28 = icmp eq i64 %27, 0
  br i1 %28, label %34, label %29

29:                                               ; preds = %26
  %30 = load i64, ptr %9, align 8
  %31 = load i64, ptr %10, align 8
  %32 = udiv i64 -1, %31
  %33 = icmp ule i64 %30, %32
  br i1 %33, label %34, label %39

34:                                               ; preds = %29, %26
  %35 = load i64, ptr %9, align 8
  %36 = load i64, ptr %10, align 8
  %37 = mul i64 %35, %36
  %38 = call noalias ptr @g_malloc(i64 noundef %37) #12
  store ptr %38, ptr %11, align 8
  br label %43

39:                                               ; preds = %29, %23
  %40 = load i64, ptr %9, align 8
  %41 = load i64, ptr %10, align 8
  %42 = call noalias ptr @g_malloc_n(i64 noundef %40, i64 noundef %41) #13
  store ptr %42, ptr %11, align 8
  br label %43

43:                                               ; preds = %39, %34
  br label %44

44:                                               ; preds = %43, %20
  %45 = load ptr, ptr %11, align 8
  store ptr %45, ptr %12, align 8
  call void @llvm.lifetime.end.p0(i64 8, ptr %11) #10
  call void @llvm.lifetime.end.p0(i64 8, ptr %10) #10
  call void @llvm.lifetime.end.p0(i64 8, ptr %9) #10
  %46 = load ptr, ptr %12, align 8
  store ptr %46, ptr %8, align 8
  %47 = load ptr, ptr %8, align 8
  %48 = load ptr, ptr %5, align 8
  %49 = getelementptr inbounds nuw %struct.wtap_dumper, ptr %48, i32 0, i32 7
  store ptr %47, ptr %49, align 8
  %50 = load ptr, ptr %8, align 8
  %51 = getelementptr inbounds nuw %struct.visual_write_info, ptr %50, i32 0, i32 1
  store i32 0, ptr %51, align 4
  %52 = load ptr, ptr %8, align 8
  %53 = getelementptr inbounds nuw %struct.visual_write_info, ptr %52, i32 0, i32 2
  store i32 1024, ptr %53, align 8
  %54 = load ptr, ptr %8, align 8
  %55 = getelementptr inbounds nuw %struct.visual_write_info, ptr %54, i32 0, i32 3
  store ptr null, ptr %55, align 8
  %56 = load ptr, ptr %8, align 8
  %57 = getelementptr inbounds nuw %struct.visual_write_info, ptr %56, i32 0, i32 4
  store i32 192, ptr %57, align 8
  %58 = load ptr, ptr %5, align 8
  %59 = load ptr, ptr %6, align 8
  %60 = call i64 @wtap_dump_file_seek(ptr noundef %58, i64 noundef 192, i32 noundef 0, ptr noundef %59)
  %61 = icmp eq i64 %60, -1
  br i1 %61, label %62, label %63

62:                                               ; preds = %44
  store i1 false, ptr %4, align 1
  store i32 1, ptr %13, align 4
  br label %64

63:                                               ; preds = %44
  store i1 true, ptr %4, align 1
  store i32 1, ptr %13, align 4
  br label %64

64:                                               ; preds = %63, %62
  call void @llvm.lifetime.end.p0(i64 8, ptr %8) #10
  %65 = load i1, ptr %4, align 1
  ret i1 %65
}