; Function Attrs: null_pointer_is_valid sspstrong uwtable
define internal zeroext i1 @visual_dump_open(ptr noundef initializes((40, 48), (64, 80)) %0, ptr noundef %1, ptr readnone captures(none) %2) #0 {
  %4 = getelementptr inbounds nuw i8, ptr %0, i64 64
  store ptr @visual_dump, ptr %4, align 8
  %5 = getelementptr inbounds nuw i8, ptr %0, i64 72
  store ptr @visual_dump_finish, ptr %5, align 8
  %6 = tail call noalias dereferenceable_or_null(32) ptr @g_malloc(i64 noundef 32) #8
  %7 = getelementptr inbounds nuw i8, ptr %0, i64 40
  store ptr %6, ptr %7, align 8
  %8 = getelementptr inbounds nuw i8, ptr %6, i64 4
  store i32 0, ptr %8, align 4
  %9 = getelementptr inbounds nuw i8, ptr %6, i64 8
  store i32 1024, ptr %9, align 8
  %10 = getelementptr inbounds nuw i8, ptr %6, i64 16
  store ptr null, ptr %10, align 8
  %11 = getelementptr inbounds nuw i8, ptr %6, i64 24
  store i32 192, ptr %11, align 8
  %12 = tail call i64 @wtap_dump_file_seek(ptr noundef %0, i64 noundef 192, i32 noundef 0, ptr noundef %1)
  %13 = icmp ne i64 %12, -1
  ret i1 %13
}